TN:
SF:/home/flaviovdf/workspace/programacao-2/exemplos/aula16-testes/02-programa-completo/include/midia.h
DA:10,4
LF:1
LH:1
end_of_record
SF:/home/flaviovdf/workspace/programacao-2/exemplos/aula16-testes/02-programa-completo/include/midia.h
DA:10,[41;37m[K        0[m[K
LF:1
LH:0
end_of_record
SF:/home/flaviovdf/workspace/programacao-2/exemplos/aula16-testes/02-programa-completo/tests/test_item.cpp
FN:5,_ZL20_DOCTEST_ANON_FUNC_2v
FN:10,_ZL20_DOCTEST_ANON_FUNC_4v
FN:16,_ZL20_DOCTEST_ANON_FUNC_6v
FNDA:1,_ZL20_DOCTEST_ANON_FUNC_2v
FNDA:1,_ZL20_DOCTEST_ANON_FUNC_4v
FNDA:1,_ZL20_DOCTEST_ANON_FUNC_6v
FNF:3
FNH:3
DA:5,1
DA:6,4
DA:7,1
DA:8,1
DA:10,1
DA:11,4
DA:12,1
DA:13,1
DA:14,1
DA:16,1
DA:17,4
DA:18,1
DA:19,1
DA:20,1
LF:14
LH:14
end_of_record
SF:/home/flaviovdf/workspace/programacao-2/exemplos/aula16-testes/02-programa-completo/third_party/doctest.h
FN:809,_ZN7doctest6detail15StringMakerBaseILb1EE7convertINSt7__cxx1112basic_stringIcSt11char_traitsIcESaIcEEEEENS_6StringERKT_
FN:1007,_ZN7doctest6detail19stringifyBinaryExprINSt7__cxx1112basic_stringIcSt11char_traitsIcESaIcEEES7_EENS_6StringERKT_PKcRKT0_
FN:1007,_ZN7doctest6detail19stringifyBinaryExprIdiEENS_6StringERKT_PKcRKT0_
FN:1112,_ZN7doctest6detail2eqIdiEEbRKT_RKT0_
FN:1293,_ZNK7doctest6detail20RelationalComparatorILi0EdiEclERKdRKi
FN:1293,_ZNK7doctest6detail20RelationalComparatorILi0ENSt7__cxx1112basic_stringIcSt11char_traitsIcESaIcEEES7_EclERKS7_SA_
FN:1311,_ZN7doctest6detail13ResultBuilder13binary_assertILi0EdiEEvRKT0_RKT1_
FN:1311,_ZN7doctest6detail13ResultBuilder13binary_assertILi0ENSt7__cxx1112basic_stringIcSt11char_traitsIcESaIcEEES8_EEvRKT0_RKT1_
FNDA:0,_ZN7doctest6detail15StringMakerBaseILb1EE7convertINSt7__cxx1112basic_stringIcSt11char_traitsIcESaIcEEEEENS_6StringERKT_
FNDA:0,_ZN7doctest6detail19stringifyBinaryExprINSt7__cxx1112basic_stringIcSt11char_traitsIcESaIcEEES7_EENS_6StringERKT_PKcRKT0_
FNDA:0,_ZN7doctest6detail19stringifyBinaryExprIdiEENS_6StringERKT_PKcRKT0_
FNDA:0,_ZN7doctest6detail2eqIdiEEbRKT_RKT0_
FNDA:0,_ZNK7doctest6detail20RelationalComparatorILi0ENSt7__cxx1112basic_stringIcSt11char_traitsIcESaIcEEES7_EclERKS7_SA_
FNDA:0,_ZNK7doctest6detail20RelationalComparatorILi0EdiEclERKdRKi
FNDA:1,_ZN7doctest6detail13ResultBuilder13binary_assertILi0ENSt7__cxx1112basic_stringIcSt11char_traitsIcESaIcEEES8_EEvRKT0_RKT1_
FNDA:1,_ZN7doctest6detail13ResultBuilder13binary_assertILi0EdiEEvRKT0_RKT1_
FNF:8
FNH:2
DA:809,0
DA:810,0
DA:811,0
DA:855,0
DA:1007,0
DA:1009,0
DA:1011,0
DA:1013,0
DA:1015,0
DA:1017,0
DA:1120,2
DA:1301,3
DA:1319,2
DA:1321,4
DA:1322,2
DA:1323,0
DA:1324,2
DA:1325,1
DA:1327,2
DA:1328,1
DA:1329,0
DA:1330,1
DA:1331,1
DA:1333,2
DA:1334,1
DA:1335,0
DA:1336,1
LF:27
LH:14
end_of_record
TN:
SF:/home/flaviovdf/workspace/programacao-2/exemplos/aula16-testes/02-programa-completo/src/item.cpp
FN:3,_ZN4ItemC2ER5Midiadb
FN:6,_ZN4Item9get_midiaEv
FN:10,_ZN4Item9get_valorEv
FNDA:6,_ZN4ItemC2ER5Midiadb
FNDA:2,_ZN4Item9get_midiaEv
FNDA:2,_ZN4Item9get_valorEv
FNF:3
FNH:3
DA:3,6
DA:4,6
DA:6,2
DA:7,2
DA:10,2
DA:11,2
LF:6
LH:6
end_of_record
TN:
SF:/home/flaviovdf/workspace/programacao-2/exemplos/aula16-testes/02-programa-completo/include/midia.h
DA:10,0
LF:1
LH:0
end_of_record
SF:/home/flaviovdf/workspace/programacao-2/exemplos/aula16-testes/02-programa-completo/src/goplay.cpp
FN:26,_ZN6GoPlay17adicionar_usuarioENSt7__cxx1112basic_stringIcSt11char_traitsIcESaIcEEE
FN:33,_ZN6GoPlay16_adicionar_midiaEP5Midia
FN:39,_ZN6GoPlay15adicionar_serieENSt7__cxx1112basic_stringIcSt11char_traitsIcESaIcEEE
FN:45,_ZN6GoPlay20adicionar_lancamentoENSt7__cxx1112basic_stringIcSt11char_traitsIcESaIcEEE
FN:51,_ZN6GoPlay16adicionar_normalENSt7__cxx1112basic_stringIcSt11char_traitsIcESaIcEEE
FN:57,_ZN6GoPlay17_realiza_operacaoEiib
FN:69,_ZN6GoPlay15realiza_aluguelEii
FN:73,_ZN6GoPlay14realiza_compraEii
FN:77,_ZN6GoPlay11get_usuarioEi
FNDA:0,_ZN6GoPlayC2Ev
FNDA:0,_ZN6GoPlayD2Ev
FNDA:0,_ZN6GoPlay17adicionar_usuarioENSt7__cxx1112basic_stringIcSt11char_traitsIcESaIcEEE
FNDA:0,_ZN6GoPlay16_adicionar_midiaEP5Midia
FNDA:0,_ZN6GoPlay15adicionar_serieENSt7__cxx1112basic_stringIcSt11char_traitsIcESaIcEEE
FNDA:0,_ZN6GoPlay20adicionar_lancamentoENSt7__cxx1112basic_stringIcSt11char_traitsIcESaIcEEE
FNDA:0,_ZN6GoPlay16adicionar_normalENSt7__cxx1112basic_stringIcSt11char_traitsIcESaIcEEE
FNDA:0,_ZN6GoPlay17_realiza_operacaoEiib
FNDA:0,_ZN6GoPlay15realiza_aluguelEii
FNDA:0,_ZN6GoPlay14realiza_compraEii
FNDA:0,_ZN6GoPlay11get_usuarioEi
FNF:11
FNH:0
DA:12,0
DA:13,0
DA:14,0
DA:15,0
DA:17,0
DA:18,0
DA:19,0
DA:21,0
DA:22,0
DA:24,0
DA:26,0
DA:27,0
DA:28,0
DA:29,0
DA:30,0
DA:33,0
DA:34,0
DA:35,0
DA:36,0
DA:39,0
DA:40,0
DA:41,0
DA:42,0
DA:45,0
DA:46,0
DA:47,0
DA:48,0
DA:51,0
DA:52,0
DA:53,0
DA:54,0
DA:57,0
DA:58,0
DA:59,0
DA:60,0
DA:61,0
DA:62,0
DA:64,0
DA:65,0
DA:67,0
DA:69,0
DA:70,0
DA:71,0
DA:73,0
DA:74,0
DA:75,0
DA:77,0
DA:78,0
LF:48
LH:0
end_of_record
TN:
SF:/home/flaviovdf/workspace/programacao-2/exemplos/aula16-testes/02-programa-completo/src/usuario.cpp
FN:7,_ZN7Usuario12inserir_itemE4Item
FN:11,_ZN7Usuario12total_gastosEv
FNDA:0,_ZN7UsuarioC2ENSt7__cxx1112basic_stringIcSt11char_traitsIcESaIcEEE
FNDA:0,_ZN7Usuario12inserir_itemE4Item
FNDA:0,_ZN7Usuario12total_gastosEv
FNF:3
FNH:0
DA:3,0
DA:4,0
DA:7,0
DA:8,0
DA:9,0
DA:11,0
DA:12,0
DA:13,0
DA:14,0
DA:16,0
LF:10
LH:0
end_of_record
TN:
SF:/home/flaviovdf/workspace/programacao-2/exemplos/aula16-testes/02-programa-completo/src/midia.cpp
FN:3,_ZN5MidiaC2ENSt7__cxx1112basic_stringIcSt11char_traitsIcESaIcEEEdd4Tipo
FN:9,_ZN5Midia8get_tipoEv
FN:13,_ZN5Midia8get_nomeB5cxx11Ev
FN:17,_ZN5Midia17get_preco_aluguelEv
FN:21,_ZN5Midia16get_preco_compraEv
FNDA:6,_ZN5MidiaC2ENSt7__cxx1112basic_stringIcSt11char_traitsIcESaIcEEEdd4Tipo
FNDA:0,_ZN5Midia8get_tipoEv
FNDA:4,_ZN5Midia8get_nomeB5cxx11Ev
FNDA:0,_ZN5Midia17get_preco_aluguelEv
FNDA:0,_ZN5Midia16get_preco_compraEv
FNF:5
FNH:2
DA:3,6
DA:4,6
DA:6,6
DA:7,6
DA:9,0
DA:10,0
DA:13,4
DA:14,4
DA:17,0
DA:18,0
DA:21,0
DA:22,0
LF:12
LH:6
end_of_record
TN:
SF:/home/flaviovdf/workspace/programacao-2/exemplos/aula16-testes/02-programa-completo/third_party/doctest.h
FN:441,_ZNK7doctest6String9isOnStackEv
FN:630,_ZN7doctest12TestCaseDataaSERKS0_
FN:630,_ZN7doctest12TestCaseDataD2Ev
FN:630,_ZN7doctest12TestCaseDataC2ERKS0_
FN:630,_ZN7doctest12TestCaseDataC2Ev
FN:647,_ZN7doctest10AssertDataC2Ev
FN:647,_ZN7doctest10AssertDataD2Ev
FN:672,_ZN7doctest11MessageDataC2Ev
FN:672,_ZN7doctest11MessageDataD2Ev
FN:683,_ZN7doctest16SubcaseSignatureC2ERKS0_
FN:683,_ZN7doctest16SubcaseSignatureaSERKS0_
FN:683,_ZN7doctest16SubcaseSignatureC2Ev
FN:683,_ZN7doctest16SubcaseSignatureD2Ev
FN:697,_ZN7doctest13IContextScopeD2Ev
FN:697,_ZN7doctest13IContextScopeD0Ev
FN:697,_ZN7doctest13IContextScopeC2Ev
FN:706,_ZN7doctest14ContextOptionsD2Ev
FN:706,_ZN7doctest14ContextOptionsC2Ev
FN:880,_ZN7doctest6ApproxC2ERKS0_
FN:880,_ZN7doctest6ApproxaSERKS0_
FN:984,_ZN7doctest6detail20TestFailureExceptionD2Ev
FN:984,_ZN7doctest6detail20TestFailureExceptionC2Ev
FN:984,_ZN7doctest6detail20TestFailureExceptionaSERKS1_
FN:984,_ZN7doctest6detail20TestFailureExceptionC2ERKS1_
FN:1031,_ZN7doctest6detail6ResultC2ERKS1_
FN:1031,_ZN7doctest6detail6ResultD2Ev
FN:1031,_ZN7doctest6detail6ResultaSERKS1_
FN:1031,_ZN7doctest6detail6ResultC2Ev
FN:1196,_ZN7doctest6detail20ExpressionDecomposerC2Ev
FN:1196,_ZN7doctest6detail20ExpressionDecomposerD2Ev
FN:1215,_ZN7doctest6detail9TestSuiteC2Ev
FN:1215,_ZN7doctest6detail9TestSuiteD2Ev
FN:1215,_ZN7doctest6detail9TestSuiteaSERKS1_
FN:1215,_ZN7doctest6detail9TestSuiteC2ERKS1_
FN:1239,_ZN7doctest6detail8TestCaseC2Ev
FN:1239,_ZN7doctest6detail8TestCaseD2Ev
FN:1300,_ZN7doctest6detail13ResultBuilderD2Ev
FN:1300,_ZN7doctest6detail13ResultBuilderC2Ev
FN:1422,_ZN7doctest6detail20IExceptionTranslatorC2Ev
FN:1422,_ZN7doctest6detail20IExceptionTranslatorD2Ev
FN:1422,_ZN7doctest6detail20IExceptionTranslatorD0Ev
FN:1514,_ZN7doctest6detail14ContextBuilderC2Ev
FN:1518,_ZN7doctest6detail14ContextBuilder8ICaptureC2Ev
FN:1518,_ZN7doctest6detail14ContextBuilder8ICaptureD0Ev
FN:1518,_ZN7doctest6detail14ContextBuilder8ICaptureD2Ev
FN:1536,_ZN7doctest6detail14ContextBuilder5ChunkC2Ev
FN:1536,_ZN7doctest6detail14ContextBuilder5ChunkD2Ev
FN:1545,_ZN7doctest6detail14ContextBuilder4NodeC2Ev
FN:1545,_ZN7doctest6detail14ContextBuilder4NodeD2Ev
FN:1617,_ZN7doctest6detail14MessageBuilderD2Ev
FN:1732,_ZN7doctest20CurrentTestCaseStatsC2Ev
FN:1732,_ZN7doctest20CurrentTestCaseStatsD2Ev
FN:1745,_ZN7doctest12TestRunStatsD2Ev
FN:1745,_ZN7doctest12TestRunStatsC2Ev
FN:1758,_ZN7doctest9IReporterD0Ev
FN:1758,_ZN7doctest9IReporterD2Ev
FN:2746,_ZN7doctest12_GLOBAL__N_17stricmpEPKcS2_
FN:2755,_ZN7doctest12_GLOBAL__N_110fpToStringIfEENS_6StringET_i
FN:2755,_ZN7doctest12_GLOBAL__N_110fpToStringIdEENS_6StringET_i
FN:2755,_ZN7doctest12_GLOBAL__N_110fpToStringIeEENS_6StringET_i
FN:2790,_ZN7doctest6detail9my_memcpyEPvPKvj
FN:2792,_ZN7doctest6detail17rawMemoryToStringEPKvj
FN:2810,_ZN7doctest6detail9getTlsOssEv
FN:2817,_ZN7doctest6detail15getTlsOssResultEv
FN:2860,_ZN7doctest6String9setOnHeapEv
FN:2861,_ZN7doctest6String7setLastEj
FN:2863,_ZN7doctest6String4copyERKS0_
FN:2875,_ZN7doctest6StringC2Ev
FN:2880,_ZN7doctest6StringD2Ev
FN:2885,_ZN7doctest6StringC2EPKc
FN:2899,_ZN7doctest6StringC2ERKS0_
FN:2901,_ZN7doctest6StringaSERKS0_
FN:2912,_ZN7doctest6StringpLERKS0_
FN:2961,_ZNK7doctest6StringplERKS0_
FN:2963,_ZN7doctest6StringC2EOS0_
FN:2969,_ZN7doctest6StringaSEOS0_
FN:2980,_ZNK7doctest6StringixEj
FN:2984,_ZN7doctest6StringixEj
FN:2991,_ZNK7doctest6String4sizeEv
FN:2998,_ZNK7doctest6String8capacityEv
FN:3004,_ZNK7doctest6String7compareEPKcb
FN:3010,_ZNK7doctest6String7compareERKS0_b
FN:3015,_ZN7doctesteqERKNS_6StringES2_
FN:3016,_ZN7doctestneERKNS_6StringES2_
FN:3017,_ZN7doctestltERKNS_6StringES2_
FN:3018,_ZN7doctestgtERKNS_6StringES2_
FN:3019,_ZN7doctestleERKNS_6StringES2_
FN:3020,_ZN7doctestgeERKNS_6StringES2_
FN:3023,_ZN7doctestlsERSoRKNS_6StringE
FN:3030,_ZN7doctest5ColorlsERSoNS0_4EnumE
FN:3037,_ZN7doctest12assertStringENS_10assertType4EnumE
FN:3117,_ZN7doctest13failureStringENS_10assertType4EnumE
FN:3130,_ZN7doctest22removePathFromFilenameEPKc
FN:3152,_ZN7doctest16SubcaseSignatureC2EPKcS2_i
FN:3160,_ZNK7doctest16SubcaseSignatureltERKS0_
FN:3177,_ZN7doctest8toStringEb
FN:3178,_ZN7doctest8toStringEf
FN:3179,_ZN7doctest8toStringEd
FN:3180,_ZN7doctest8toStringEe
FN:3189,_ZN7doctest8toStringEc
FN:3190,_ZN7doctest8toStringEa
FN:3191,_ZN7doctest8toStringEh
FN:3192,_ZN7doctest8toStringEs
FN:3193,_ZN7doctest8toStringEt
FN:3194,_ZN7doctest8toStringEi
FN:3195,_ZN7doctest8toStringEj
FN:3196,_ZN7doctest8toStringEl
FN:3197,_ZN7doctest8toStringEm
FN:3198,_ZN7doctest8toStringEx
FN:3199,_ZN7doctest8toStringEy
FN:3201,_ZN7doctest8toStringEDn
FN:3203,_ZN7doctest6ApproxC2Ed
FN:3210,_ZNK7doctest6ApproxclEd
FN:3217,_ZN7doctest6Approx7epsilonEd
FN:3221,_ZN7doctest6Approx5scaleEd
FN:3226,_ZN7doctesteqEdRKNS_6ApproxE
FN:3231,_ZN7doctesteqERKNS_6ApproxEd
FN:3232,_ZN7doctestneEdRKNS_6ApproxE
FN:3233,_ZN7doctestneERKNS_6ApproxEd
FN:3234,_ZN7doctestleEdRKNS_6ApproxE
FN:3235,_ZN7doctestleERKNS_6ApproxEd
FN:3236,_ZN7doctestgeEdRKNS_6ApproxE
FN:3237,_ZN7doctestgeERKNS_6ApproxEd
FN:3238,_ZN7doctestltEdRKNS_6ApproxE
FN:3239,_ZN7doctestltERKNS_6ApproxEd
FN:3240,_ZN7doctestgtEdRKNS_6ApproxE
FN:3241,_ZN7doctestgtERKNS_6ApproxEd
FN:3243,_ZN7doctest8toStringERKNS_6ApproxE
FN:3246,_ZN7doctest17getContextOptionsEv
FN:3338,_ZN28doctest_detail_test_suite_ns19getCurrentTestSuiteEv
FN:3348,_ZN7doctest12_GLOBAL__N_112getReportersEv
FN:3353,_ZN7doctest12_GLOBAL__N_114throwExceptionEv
FN:3366,_ZN7doctest6detail18checkIfShouldThrowENS_10assertType4EnumE
FN:3379,_ZN7doctest6detail24fastAssertThrowIfFlagSetEi
FN:3389,_ZN7doctest12_GLOBAL__N_17wildcmpEPKcS2_b
FN:3435,_ZN7doctest12_GLOBAL__N_110matchesAnyEPKcRKSt6vectorINS_6StringESaIS4_EEbb
FN:3472,_ZN7doctest12_GLOBAL__N_15Timer5startEv
FN:3473,_ZNK7doctest12_GLOBAL__N_15Timer22getElapsedMicrosecondsEv
FN:3479,_ZNK7doctest12_GLOBAL__N_15Timer17getElapsedSecondsEv
FN:3489,_ZN7doctest6detail7SubcaseC2EPKcS3_i
FN:3517,_ZN7doctest6detail7SubcaseD2Ev
FN:3530,_ZNK7doctest6detail7SubcasecvbEv
FN:3532,_ZN7doctest6detail6ResultC2EbRKNS_6StringE
FN:3539,_ZN7doctest6detail20ExpressionDecomposerC2ENS_10assertType4EnumE
FN:3547,_ZN7doctest6detail9TestSuitemlEPKc
FN:3559,_ZN7doctest6detail8TestCaseC2EPFvvEPKcjRKNS0_9TestSuiteES5_i
FN:3579,_ZN7doctest6detail8TestCaseC2ERKS1_
FN:3586,_ZN7doctest6detail8TestCaseaSERKS1_
FN:3600,_ZN7doctest6detail8TestCasemlEPKc
FN:3611,_ZNK7doctest6detail8TestCaseltERKS1_
FN:3623,_ZN7doctest12_GLOBAL__N_119fileOrderComparatorEPKvS2_
FN:3639,_ZN7doctest12_GLOBAL__N_120suiteOrderComparatorEPKvS2_
FN:3650,_ZN7doctest12_GLOBAL__N_119nameOrderComparatorEPKvS2_
FN:3661,_ZN7doctest12_GLOBAL__N_118getRegisteredTestsEv
FN:3690,_ZN7doctest12_GLOBAL__N_115color_to_streamERSoNS_5Color4EnumE
FN:3749,_ZN7doctest12_GLOBAL__N_123getExceptionTranslatorsEv
FN:3754,_ZN7doctest12_GLOBAL__N_124translateActiveExceptionEv
FN:3782,_ZN7doctest6detail7regTestERKNS0_8TestCaseE
FN:3788,_ZN7doctest6detail12setTestSuiteERKNS0_9TestSuiteE
FN:3824,_ZN7doctest6detail16isDebuggerActiveEv
FN:3827,_ZN7doctest6detail31registerExceptionTranslatorImplEPKNS0_20IExceptionTranslatorE
FN:3833,_ZN7doctest6detail19writeStringToStreamEPSoRKNS_6StringE
FN:3839,_ZN7doctest6detail8toStreamEPSob
FN:3840,_ZN7doctest6detail8toStreamEPSof
FN:3841,_ZN7doctest6detail8toStreamEPSod
FN:3842,_ZN7doctest6detail8toStreamEPSoe
FN:3844,_ZN7doctest6detail8toStreamEPSoc
FN:3845,_ZN7doctest6detail8toStreamEPSoa
FN:3846,_ZN7doctest6detail8toStreamEPSoh
FN:3847,_ZN7doctest6detail8toStreamEPSos
FN:3848,_ZN7doctest6detail8toStreamEPSot
FN:3849,_ZN7doctest6detail8toStreamEPSoi
FN:3850,_ZN7doctest6detail8toStreamEPSoj
FN:3851,_ZN7doctest6detail8toStreamEPSol
FN:3852,_ZN7doctest6detail8toStreamEPSom
FN:3853,_ZN7doctest6detail8toStreamEPSox
FN:3854,_ZN7doctest6detail8toStreamEPSoy
FN:3868,_ZN7doctest6detail14ContextBuilderC2ERS1_
FN:3880,_ZNK7doctest6detail14ContextBuilder9stringifyEPSo
FN:3897,_ZN7doctest6detail14ContextBuilderD2Ev
FN:3907,_ZN7doctest6detail12ContextScopeC2ERNS0_14ContextBuilderE
FN:3915,_ZN7doctest6detail12ContextScopeD2Ev
FN:3915,_ZN7doctest6detail12ContextScopeD0Ev
FN:3927,_ZNK7doctest6detail12ContextScope9stringifyEPSo
FN:4025,_ZN7doctest12_GLOBAL__N_121FatalConditionHandler12handleSignalEi
FN:4039,_ZN7doctest12_GLOBAL__N_121FatalConditionHandlerC2Ev
FN:4055,_ZN7doctest12_GLOBAL__N_121FatalConditionHandlerD2Ev
FN:4056,_ZN7doctest12_GLOBAL__N_121FatalConditionHandler5resetEv
FN:4100,_ZN7doctest12_GLOBAL__N_111reportFatalERKNSt7__cxx1112basic_stringIcSt11char_traitsIcESaIcEEE
FN:4118,_ZN7doctest6detail13ResultBuilderC2ENS_10assertType4EnumEPKciS5_S5_
FN:4137,_ZN7doctest6detail13ResultBuilder9setResultERKNS0_6ResultE
FN:4142,_ZN7doctest6detail13ResultBuilder27unexpectedExceptionOccurredEv
FN:4147,_ZN7doctest6detail13ResultBuilder3logEv
FN:4170,_ZNK7doctest6detail13ResultBuilder5reactEv
FN:4175,_ZN7doctest6detail31failed_out_of_a_testing_contextERKNS_10AssertDataE
FN:4182,_ZN7doctest6detail14MessageBuilderC2EPKciNS_10assertType4EnumE
FN:4192,_ZN7doctest6detail14MessageBuilder3logEv
FN:4207,_ZN7doctest6detail14MessageBuilder5reactEv
FN:4235,_ZN7doctest12_GLOBAL__N_115ConsoleReporter19separator_to_streamEv
FN:4242,_ZN7doctest12_GLOBAL__N_115ConsoleReporter19file_line_to_streamEPKciS3_
FN:4261,_ZN7doctest12_GLOBAL__N_115ConsoleReporter34successOrFailColoredStringToStreamEbNS_10assertType4EnumEPKc
FN:4267,_ZN7doctest12_GLOBAL__N_115ConsoleReporter12log_contextsEv
FN:4283,_ZN7doctest12_GLOBAL__N_115ConsoleReporter12logTestStartEv
FN:4310,_ZN7doctest12_GLOBAL__N_115ConsoleReporter14test_run_startERKNS_14ContextOptionsE
FN:4312,_ZN7doctest12_GLOBAL__N_115ConsoleReporter12test_run_endERKNS_12TestRunStatsE
FN:4340,_ZN7doctest12_GLOBAL__N_115ConsoleReporter15test_case_startERKNS_12TestCaseDataE
FN:4345,_ZN7doctest12_GLOBAL__N_115ConsoleReporter13test_case_endERKNS_20CurrentTestCaseStatsE
FN:4404,_ZN7doctest12_GLOBAL__N_115ConsoleReporter13subcase_startERKNS_16SubcaseSignatureE
FN:4409,_ZN7doctest12_GLOBAL__N_115ConsoleReporter11subcase_endERKNS_16SubcaseSignatureE
FN:4414,_ZN7doctest12_GLOBAL__N_115ConsoleReporter10log_assertERKNS_10AssertDataE
FN:4453,_ZN7doctest12_GLOBAL__N_115ConsoleReporter11log_messageERKNS_11MessageDataE
FN:4466,_ZN7doctest12_GLOBAL__N_115ConsoleReporter17test_case_skippedERKNS_12TestCaseDataE
FN:4475,_ZN7doctest12_GLOBAL__N_126ConsoleReporterWithHelpers12printVersionEv
FN:4481,_ZN7doctest12_GLOBAL__N_126ConsoleReporterWithHelpers10printIntroEv
FN:4486,_ZN7doctest12_GLOBAL__N_126ConsoleReporterWithHelpers9printHelpEv
FN:4556,_ZN7doctest12_GLOBAL__N_126ConsoleReporterWithHelpers24printRegisteredReportersEv
FN:4564,_ZN7doctest12_GLOBAL__N_126ConsoleReporterWithHelpers20output_query_resultsEv
FN:4580,_ZN7doctest12_GLOBAL__N_126ConsoleReporterWithHelpers32output_query_preamble_test_casesEv
FN:4585,_ZN7doctest12_GLOBAL__N_126ConsoleReporterWithHelpers33output_query_preamble_test_suitesEv
FN:4590,_ZN7doctest12_GLOBAL__N_126ConsoleReporterWithHelpers28output_c_string_with_newlineEPKc
FN:4630,_ZN7doctest12_GLOBAL__N_113parseFlagImplEiPKPKcS2_
FN:4650,_ZN7doctest12_GLOBAL__N_19parseFlagEiPKPKcS2_
FN:4659,_ZN7doctest12_GLOBAL__N_115parseOptionImplEiPKPKcS2_RNS_6StringE
FN:4686,_ZN7doctest12_GLOBAL__N_111parseOptionEiPKPKcS2_RNS_6StringERKS5_
FN:4697,_ZN7doctest12_GLOBAL__N_117parseCommaSepArgsEiPKPKcS2_RSt6vectorINS_6StringESaIS6_EE
FN:4725,_ZN7doctest12_GLOBAL__N_114parseIntOptionEiPKPKcS2_NS0_10optionTypeERi
FN:4760,_ZN7doctest7ContextC2EiPKPKc
FN:4765,_ZN7doctest7ContextD2Ev
FN:4771,_ZN7doctest7Context16applyCommandLineEiPKPKc
FN:4774,_ZN7doctest7Context9parseArgsEiPKPKcb
FN:4886,_ZN7doctest7Context9addFilterEPKcS2_
FN:4889,_ZN7doctest7Context12clearFiltersEv
FN:4895,_ZN7doctest7Context9setOptionEPKci
FN:4900,_ZN7doctest7Context9setOptionEPKcS2_
FN:4907,_ZN7doctest7Context10shouldExitEv
FN:4909,_ZN7doctest7Context36setAsDefaultForAssertsOutOfTestCasesEv
FN:4911,_ZN7doctest7Context16setAssertHandlerEPFvRKNS_10AssertDataEE
FN:4914,_ZN7doctest7Context3runEv
FN:5187,_ZN7doctest9IReporter23get_num_active_contextsEv
FN:5188,_ZN7doctest9IReporter19get_active_contextsEv
FN:5192,_ZN7doctest9IReporter28get_num_stringified_contextsEv
FN:5193,_ZN7doctest9IReporter24get_stringified_contextsEv
FN:5197,_ZN7doctest16registerReporterEPKciRNS_9IReporterE
FN:5205,_ZN7doctest54DOCTEST_FIX_FOR_MACOS_LIBCPP_IOSFWD_STRING_LINK_ERRORSEv
FN:5212,main
FNDA:0,_ZNK7doctest6String9isOnStackEv
FNDA:0,_ZN7doctest12TestCaseDataaSERKS0_
FNDA:0,_ZN7doctest12TestCaseDataC2ERKS0_
FNDA:0,_ZN7doctest12TestCaseDataD2Ev
FNDA:0,_ZN7doctest12TestCaseDataC2Ev
FNDA:3,_ZN7doctest10AssertDataD2Ev
FNDA:0,_ZN7doctest10AssertDataC2Ev
FNDA:0,_ZN7doctest11MessageDataD2Ev
FNDA:0,_ZN7doctest11MessageDataC2Ev
FNDA:0,_ZN7doctest16SubcaseSignatureaSERKS0_
FNDA:0,_ZN7doctest16SubcaseSignatureC2ERKS0_
FNDA:0,_ZN7doctest16SubcaseSignatureD2Ev
FNDA:0,_ZN7doctest16SubcaseSignatureC2Ev
FNDA:0,_ZN7doctest13IContextScopeD0Ev
FNDA:0,_ZN7doctest13IContextScopeD2Ev
FNDA:0,_ZN7doctest13IContextScopeC2Ev
FNDA:0,_ZN7doctest14ContextOptionsD2Ev
FNDA:0,_ZN7doctest14ContextOptionsC2Ev
FNDA:0,_ZN7doctest6ApproxaSERKS0_
FNDA:0,_ZN7doctest6ApproxC2ERKS0_
FNDA:0,_ZN7doctest6detail20TestFailureExceptionaSERKS1_
FNDA:0,_ZN7doctest6detail20TestFailureExceptionC2ERKS1_
FNDA:0,_ZN7doctest6detail20TestFailureExceptionD2Ev
FNDA:0,_ZN7doctest6detail20TestFailureExceptionC2Ev
FNDA:0,_ZN7doctest6detail6ResultaSERKS1_
FNDA:0,_ZN7doctest6detail6ResultC2ERKS1_
FNDA:0,_ZN7doctest6detail6ResultD2Ev
FNDA:0,_ZN7doctest6detail6ResultC2Ev
FNDA:0,_ZN7doctest6detail20ExpressionDecomposerD2Ev
FNDA:0,_ZN7doctest6detail20ExpressionDecomposerC2Ev
FNDA:0,_ZN7doctest6detail9TestSuiteaSERKS1_
FNDA:0,_ZN7doctest6detail9TestSuiteC2ERKS1_
FNDA:2,_ZN7doctest6detail9TestSuiteD2Ev
FNDA:1,_ZN7doctest6detail9TestSuiteC2Ev
FNDA:3,_ZN7doctest6detail8TestCaseD2Ev
FNDA:0,_ZN7doctest6detail8TestCaseC2Ev
FNDA:3,_ZN7doctest6detail13ResultBuilderD2Ev
FNDA:0,_ZN7doctest6detail13ResultBuilderC2Ev
FNDA:0,_ZN7doctest6detail20IExceptionTranslatorD0Ev
FNDA:0,_ZN7doctest6detail20IExceptionTranslatorD2Ev
FNDA:0,_ZN7doctest6detail20IExceptionTranslatorC2Ev
FNDA:0,_ZN7doctest6detail14ContextBuilderC2Ev
FNDA:0,_ZN7doctest6detail14ContextBuilder8ICaptureD0Ev
FNDA:0,_ZN7doctest6detail14ContextBuilder8ICaptureD2Ev
FNDA:0,_ZN7doctest6detail14ContextBuilder8ICaptureC2Ev
FNDA:0,_ZN7doctest6detail14ContextBuilder5ChunkD2Ev
FNDA:0,_ZN7doctest6detail14ContextBuilder5ChunkC2Ev
FNDA:0,_ZN7doctest6detail14ContextBuilder4NodeD2Ev
FNDA:0,_ZN7doctest6detail14ContextBuilder4NodeC2Ev
FNDA:0,_ZN7doctest6detail14MessageBuilderD2Ev
FNDA:0,_ZN7doctest20CurrentTestCaseStatsD2Ev
FNDA:0,_ZN7doctest20CurrentTestCaseStatsC2Ev
FNDA:0,_ZN7doctest12TestRunStatsD2Ev
FNDA:0,_ZN7doctest12TestRunStatsC2Ev
FNDA:0,_ZN7doctest9IReporterD0Ev
FNDA:0,_ZN7doctest9IReporterD2Ev
FNDA:1,_ZN7doctest12_GLOBAL__N_17stricmpEPKcS2_
FNDA:0,_ZN7doctest12_GLOBAL__N_110fpToStringIeEENS_6StringET_i
FNDA:0,_ZN7doctest12_GLOBAL__N_110fpToStringIdEENS_6StringET_i
FNDA:0,_ZN7doctest12_GLOBAL__N_110fpToStringIfEENS_6StringET_i
FNDA:0,_ZN7doctest6detail9my_memcpyEPvPKvj
FNDA:0,_ZN7doctest6detail17rawMemoryToStringEPKvj
FNDA:0,_ZN7doctest6detail9getTlsOssEv
FNDA:0,_ZN7doctest6detail15getTlsOssResultEv
FNDA:0,_ZN7doctest6String9setOnHeapEv
FNDA:0,_ZN7doctest6String7setLastEj
FNDA:70,_ZN7doctest6String4copyERKS0_
FNDA:0,_ZN7doctest6StringC2Ev
FNDA:0,_ZN7doctest6StringD2Ev
FNDA:7,_ZN7doctest6StringC2EPKc
FNDA:0,_ZN7doctest6StringC2ERKS0_
FNDA:69,_ZN7doctest6StringaSERKS0_
FNDA:0,_ZN7doctest6StringpLERKS0_
FNDA:0,_ZNK7doctest6StringplERKS0_
FNDA:0,_ZN7doctest6StringC2EOS0_
FNDA:3,_ZN7doctest6StringaSEOS0_
FNDA:0,_ZNK7doctest6StringixEj
FNDA:0,_ZN7doctest6StringixEj
FNDA:0,_ZNK7doctest6String4sizeEv
FNDA:0,_ZNK7doctest6String8capacityEv
FNDA:3,_ZNK7doctest6String7compareEPKcb
FNDA:0,_ZNK7doctest6String7compareERKS0_b
FNDA:0,_ZN7doctesteqERKNS_6StringES2_
FNDA:0,_ZN7doctestneERKNS_6StringES2_
FNDA:0,_ZN7doctestltERKNS_6StringES2_
FNDA:0,_ZN7doctestgtERKNS_6StringES2_
FNDA:0,_ZN7doctestleERKNS_6StringES2_
FNDA:0,_ZN7doctestgeERKNS_6StringES2_
FNDA:0,_ZN7doctestlsERSoRKNS_6StringE
FNDA:0,_ZN7doctest5ColorlsERSoNS0_4EnumE
FNDA:0,_ZN7doctest12assertStringENS_10assertType4EnumE
FNDA:0,_ZN7doctest13failureStringENS_10assertType4EnumE
FNDA:0,_ZN7doctest22removePathFromFilenameEPKc
FNDA:0,_ZN7doctest16SubcaseSignatureC2EPKcS2_i
FNDA:0,_ZNK7doctest16SubcaseSignatureltERKS0_
FNDA:0,_ZN7doctest8toStringEb
FNDA:0,_ZN7doctest8toStringEf
FNDA:0,_ZN7doctest8toStringEd
FNDA:0,_ZN7doctest8toStringEe
FNDA:0,_ZN7doctest8toStringEc
FNDA:0,_ZN7doctest8toStringEa
FNDA:0,_ZN7doctest8toStringEh
FNDA:0,_ZN7doctest8toStringEs
FNDA:0,_ZN7doctest8toStringEt
FNDA:0,_ZN7doctest8toStringEi
FNDA:0,_ZN7doctest8toStringEj
FNDA:0,_ZN7doctest8toStringEl
FNDA:0,_ZN7doctest8toStringEm
FNDA:0,_ZN7doctest8toStringEx
FNDA:0,_ZN7doctest8toStringEy
FNDA:0,_ZN7doctest8toStringEDn
FNDA:0,_ZN7doctest6ApproxC2Ed
FNDA:0,_ZNK7doctest6ApproxclEd
FNDA:0,_ZN7doctest6Approx7epsilonEd
FNDA:0,_ZN7doctest6Approx5scaleEd
FNDA:0,_ZN7doctesteqEdRKNS_6ApproxE
FNDA:0,_ZN7doctesteqERKNS_6ApproxEd
FNDA:0,_ZN7doctestneEdRKNS_6ApproxE
FNDA:0,_ZN7doctestneERKNS_6ApproxEd
FNDA:0,_ZN7doctestleEdRKNS_6ApproxE
FNDA:0,_ZN7doctestleERKNS_6ApproxEd
FNDA:0,_ZN7doctestgeEdRKNS_6ApproxE
FNDA:0,_ZN7doctestgeERKNS_6ApproxEd
FNDA:0,_ZN7doctestltEdRKNS_6ApproxE
FNDA:0,_ZN7doctestltERKNS_6ApproxEd
FNDA:0,_ZN7doctestgtEdRKNS_6ApproxE
FNDA:0,_ZN7doctestgtERKNS_6ApproxEd
FNDA:0,_ZN7doctest8toStringERKNS_6ApproxE
FNDA:3,_ZN7doctest17getContextOptionsEv
FNDA:5,_ZN28doctest_detail_test_suite_ns19getCurrentTestSuiteEv
FNDA:3,_ZN7doctest12_GLOBAL__N_112getReportersEv
FNDA:0,_ZN7doctest12_GLOBAL__N_114throwExceptionEv
FNDA:0,_ZN7doctest6detail18checkIfShouldThrowENS_10assertType4EnumE
FNDA:0,_ZN7doctest6detail24fastAssertThrowIfFlagSetEi
FNDA:0,_ZN7doctest12_GLOBAL__N_17wildcmpEPKcS2_b
FNDA:19,_ZN7doctest12_GLOBAL__N_110matchesAnyEPKcRKSt6vectorINS_6StringESaIS4_EEbb
FNDA:0,_ZN7doctest12_GLOBAL__N_15Timer5startEv
FNDA:0,_ZNK7doctest12_GLOBAL__N_15Timer22getElapsedMicrosecondsEv
FNDA:3,_ZNK7doctest12_GLOBAL__N_15Timer17getElapsedSecondsEv
FNDA:0,_ZN7doctest6detail7SubcaseC2EPKcS3_i
FNDA:0,_ZN7doctest6detail7SubcaseD2Ev
FNDA:0,_ZNK7doctest6detail7SubcasecvbEv
FNDA:0,_ZN7doctest6detail6ResultC2EbRKNS_6StringE
FNDA:0,_ZN7doctest6detail20ExpressionDecomposerC2ENS_10assertType4EnumE
FNDA:1,_ZN7doctest6detail9TestSuitemlEPKc
FNDA:3,_ZN7doctest6detail8TestCaseC2EPFvvEPKcjRKNS0_9TestSuiteES5_i
FNDA:6,_ZN7doctest6detail8TestCaseC2ERKS1_
FNDA:6,_ZN7doctest6detail8TestCaseaSERKS1_
FNDA:3,_ZN7doctest6detail8TestCasemlEPKc
FNDA:7,_ZNK7doctest6detail8TestCaseltERKS1_
FNDA:2,_ZN7doctest12_GLOBAL__N_119fileOrderComparatorEPKvS2_
FNDA:0,_ZN7doctest12_GLOBAL__N_120suiteOrderComparatorEPKvS2_
FNDA:0,_ZN7doctest12_GLOBAL__N_119nameOrderComparatorEPKvS2_
FNDA:4,_ZN7doctest12_GLOBAL__N_118getRegisteredTestsEv
FNDA:26,_ZN7doctest12_GLOBAL__N_115color_to_streamERSoNS_5Color4EnumE
FNDA:0,_ZN7doctest12_GLOBAL__N_123getExceptionTranslatorsEv
FNDA:0,_ZN7doctest12_GLOBAL__N_124translateActiveExceptionEv
FNDA:3,_ZN7doctest6detail7regTestERKNS0_8TestCaseE
FNDA:2,_ZN7doctest6detail12setTestSuiteERKNS0_9TestSuiteE
FNDA:0,_ZN7doctest6detail16isDebuggerActiveEv
FNDA:0,_ZN7doctest6detail31registerExceptionTranslatorImplEPKNS0_20IExceptionTranslatorE
FNDA:0,_ZN7doctest6detail19writeStringToStreamEPSoRKNS_6StringE
FNDA:0,_ZN7doctest6detail8toStreamEPSob
FNDA:0,_ZN7doctest6detail8toStreamEPSof
FNDA:0,_ZN7doctest6detail8toStreamEPSod
FNDA:0,_ZN7doctest6detail8toStreamEPSoe
FNDA:0,_ZN7doctest6detail8toStreamEPSoc
FNDA:0,_ZN7doctest6detail8toStreamEPSoa
FNDA:0,_ZN7doctest6detail8toStreamEPSoh
FNDA:0,_ZN7doctest6detail8toStreamEPSos
FNDA:0,_ZN7doctest6detail8toStreamEPSot
FNDA:0,_ZN7doctest6detail8toStreamEPSoi
FNDA:0,_ZN7doctest6detail8toStreamEPSoj
FNDA:0,_ZN7doctest6detail8toStreamEPSol
FNDA:0,_ZN7doctest6detail8toStreamEPSom
FNDA:0,_ZN7doctest6detail8toStreamEPSox
FNDA:0,_ZN7doctest6detail8toStreamEPSoy
FNDA:0,_ZN7doctest6detail14ContextBuilderC2ERS1_
FNDA:0,_ZNK7doctest6detail14ContextBuilder9stringifyEPSo
FNDA:0,_ZN7doctest6detail14ContextBuilderD2Ev
FNDA:0,_ZN7doctest6detail12ContextScopeC2ERNS0_14ContextBuilderE
FNDA:0,_ZN7doctest6detail12ContextScopeD0Ev
FNDA:0,_ZN7doctest6detail12ContextScopeD2Ev
FNDA:0,_ZNK7doctest6detail12ContextScope9stringifyEPSo
FNDA:0,_ZN7doctest12_GLOBAL__N_121FatalConditionHandler12handleSignalEi
FNDA:0,_ZN7doctest12_GLOBAL__N_121FatalConditionHandlerC2Ev
FNDA:0,_ZN7doctest12_GLOBAL__N_121FatalConditionHandlerD2Ev
FNDA:6,_ZN7doctest12_GLOBAL__N_121FatalConditionHandler5resetEv
FNDA:0,_ZN7doctest12_GLOBAL__N_111reportFatalERKNSt7__cxx1112basic_stringIcSt11char_traitsIcESaIcEEE
FNDA:3,_ZN7doctest6detail13ResultBuilderC2ENS_10assertType4EnumEPKciS5_S5_
FNDA:0,_ZN7doctest6detail13ResultBuilder9setResultERKNS0_6ResultE
FNDA:0,_ZN7doctest6detail13ResultBuilder27unexpectedExceptionOccurredEv
FNDA:3,_ZN7doctest6detail13ResultBuilder3logEv
FNDA:3,_ZNK7doctest6detail13ResultBuilder5reactEv
FNDA:0,_ZN7doctest6detail31failed_out_of_a_testing_contextERKNS_10AssertDataE
FNDA:0,_ZN7doctest6detail14MessageBuilderC2EPKciNS_10assertType4EnumE
FNDA:0,_ZN7doctest6detail14MessageBuilder3logEv
FNDA:0,_ZN7doctest6detail14MessageBuilder5reactEv
FNDA:0,_ZN7doctest12_GLOBAL__N_115ConsoleReporter19separator_to_streamEv
FNDA:0,_ZN7doctest12_GLOBAL__N_115ConsoleReporter19file_line_to_streamEPKciS3_
FNDA:0,_ZN7doctest12_GLOBAL__N_115ConsoleReporter34successOrFailColoredStringToStreamEbNS_10assertType4EnumEPKc
FNDA:0,_ZN7doctest12_GLOBAL__N_115ConsoleReporter12log_contextsEv
FNDA:0,_ZN7doctest12_GLOBAL__N_115ConsoleReporter12logTestStartEv
FNDA:1,_ZN7doctest12_GLOBAL__N_115ConsoleReporter14test_run_startERKNS_14ContextOptionsE
FNDA:1,_ZN7doctest12_GLOBAL__N_115ConsoleReporter12test_run_endERKNS_12TestRunStatsE
FNDA:3,_ZN7doctest12_GLOBAL__N_115ConsoleReporter15test_case_startERKNS_12TestCaseDataE
FNDA:3,_ZN7doctest12_GLOBAL__N_115ConsoleReporter13test_case_endERKNS_20CurrentTestCaseStatsE
FNDA:0,_ZN7doctest12_GLOBAL__N_115ConsoleReporter13subcase_startERKNS_16SubcaseSignatureE
FNDA:0,_ZN7doctest12_GLOBAL__N_115ConsoleReporter11subcase_endERKNS_16SubcaseSignatureE
FNDA:3,_ZN7doctest12_GLOBAL__N_115ConsoleReporter10log_assertERKNS_10AssertDataE
FNDA:0,_ZN7doctest12_GLOBAL__N_115ConsoleReporter11log_messageERKNS_11MessageDataE
FNDA:0,_ZN7doctest12_GLOBAL__N_115ConsoleReporter17test_case_skippedERKNS_12TestCaseDataE
FNDA:0,_ZN7doctest12_GLOBAL__N_126ConsoleReporterWithHelpers12printVersionEv
FNDA:1,_ZN7doctest12_GLOBAL__N_126ConsoleReporterWithHelpers10printIntroEv
FNDA:0,_ZN7doctest12_GLOBAL__N_126ConsoleReporterWithHelpers9printHelpEv
FNDA:0,_ZN7doctest12_GLOBAL__N_126ConsoleReporterWithHelpers24printRegisteredReportersEv
FNDA:0,_ZN7doctest12_GLOBAL__N_126ConsoleReporterWithHelpers20output_query_resultsEv
FNDA:0,_ZN7doctest12_GLOBAL__N_126ConsoleReporterWithHelpers32output_query_preamble_test_casesEv
FNDA:0,_ZN7doctest12_GLOBAL__N_126ConsoleReporterWithHelpers33output_query_preamble_test_suitesEv
FNDA:0,_ZN7doctest12_GLOBAL__N_126ConsoleReporterWithHelpers28output_c_string_with_newlineEPKc
FNDA:90,_ZN7doctest12_GLOBAL__N_113parseFlagImplEiPKPKcS2_
FNDA:45,_ZN7doctest12_GLOBAL__N_19parseFlagEiPKPKcS2_
FNDA:124,_ZN7doctest12_GLOBAL__N_115parseOptionImplEiPKPKcS2_RNS_6StringE
FNDA:62,_ZN7doctest12_GLOBAL__N_111parseOptionEiPKPKcS2_RNS_6StringERKS5_
FNDA:18,_ZN7doctest12_GLOBAL__N_117parseCommaSepArgsEiPKPKcS2_RSt6vectorINS_6StringESaIS6_EE
FNDA:42,_ZN7doctest12_GLOBAL__N_114parseIntOptionEiPKPKcS2_NS0_10optionTypeERi
FNDA:1,_ZN7doctest7ContextC2EiPKPKc
FNDA:1,_ZN7doctest7ContextD2Ev
FNDA:0,_ZN7doctest7Context16applyCommandLineEiPKPKc
FNDA:1,_ZN7doctest7Context9parseArgsEiPKPKcb
FNDA:0,_ZN7doctest7Context9addFilterEPKcS2_
FNDA:0,_ZN7doctest7Context12clearFiltersEv
FNDA:0,_ZN7doctest7Context9setOptionEPKci
FNDA:0,_ZN7doctest7Context9setOptionEPKcS2_
FNDA:0,_ZN7doctest7Context10shouldExitEv
FNDA:0,_ZN7doctest7Context36setAsDefaultForAssertsOutOfTestCasesEv
FNDA:0,_ZN7doctest7Context16setAssertHandlerEPFvRKNS_10AssertDataEE
FNDA:1,_ZN7doctest7Context3runEv
FNDA:0,_ZN7doctest9IReporter23get_num_active_contextsEv
FNDA:0,_ZN7doctest9IReporter19get_active_contextsEv
FNDA:0,_ZN7doctest9IReporter28get_num_stringified_contextsEv
FNDA:0,_ZN7doctest9IReporter24get_stringified_contextsEv
FNDA:1,_ZN7doctest16registerReporterEPKciRNS_9IReporterE
FNDA:0,_ZN7doctest54DOCTEST_FIX_FOR_MACOS_LIBCPP_IOSFWD_STRING_LINK_ERRORSEv
FNDA:1,main
FNF:245
FNH:49
DA:441,289
DA:466,12
DA:468,12
DA:469,6
DA:470,0
DA:630,15
DA:647,18
DA:672,0
DA:683,0
DA:697,0
DA:706,0
DA:880,0
DA:984,0
DA:1031,0
DA:1196,0
DA:1215,6
DA:1239,6
DA:1300,3
DA:1422,0
DA:1514,0
DA:1518,0
DA:1536,0
DA:1545,0
DA:1617,0
DA:1732,0
DA:1745,0
DA:1758,0
DA:2746,1
DA:2747,9
DA:2748,5
DA:2749,5
DA:2750,1
DA:2751,4
DA:2755,0
DA:2756,0
DA:2757,0
DA:2758,0
DA:2759,0
DA:2760,0
DA:2761,0
DA:2762,0
DA:2763,0
DA:2765,0
DA:2767,0
DA:2768,0
DA:2769,0
DA:2770,0
DA:2771,0
DA:2772,0
DA:2773,0
DA:2774,0
DA:2775,0
DA:2777,0
DA:2779,0
DA:2780,0
DA:2781,0
DA:2782,0
DA:2783,0
DA:2784,0
DA:2785,0
DA:2786,0
DA:2787,0
DA:2789,0
DA:2791,0
DA:2792,0
DA:2793,0
DA:2794,0
DA:2795,0
DA:2796,0
DA:2797,0
DA:2798,0
DA:2799,0
DA:2801,0
DA:2813,0
DA:2819,0
DA:2820,0
DA:2826,0
DA:2828,0
DA:2830,0
DA:2831,0
DA:2832,0
DA:2833,0
DA:2836,0
DA:2837,0
DA:2838,0
DA:2839,0
DA:2840,0
DA:2841,0
DA:2846,0
DA:2847,0
DA:2848,0
DA:2850,0
DA:2853,0
DA:2855,0
DA:2881,1
DA:2882,1
DA:2883,1
DA:2884,1
DA:2885,1
DA:2886,1
DA:2896,0
DA:2897,147
DA:2899,70
DA:2900,70
DA:2901,70
DA:2903,0
DA:2904,0
DA:2905,0
DA:2906,0
DA:2907,0
DA:2909,70
DA:2911,136
DA:2912,136
DA:2913,272
DA:2914,0
DA:2916,0
DA:2917,8
DA:2918,0
DA:2919,0
DA:2921,7
DA:2922,7
DA:2923,7
DA:2924,7
DA:2925,7
DA:2927,0
DA:2928,0
DA:2929,0
DA:2930,0
DA:2931,0
DA:2933,7
DA:2935,0
DA:2937,69
DA:2938,69
DA:2939,69
DA:2940,0
DA:2942,69
DA:2945,69
DA:2948,0
DA:2949,0
DA:2950,0
DA:2951,0
DA:2952,0
DA:2953,0
DA:2955,0
DA:2956,0
DA:2959,0
DA:2961,0
DA:2963,0
DA:2964,0
DA:2965,0
DA:2966,0
DA:2968,0
DA:2971,0
DA:2973,0
DA:2974,0
DA:2977,0
DA:2978,0
DA:2979,0
DA:2981,0
DA:2983,0
DA:2985,0
DA:2987,0
DA:2988,0
DA:2990,0
DA:2994,0
DA:2997,0
DA:2999,1
DA:3000,1
DA:3001,1
DA:3002,1
DA:3003,0
DA:3005,3
DA:3006,3
DA:3007,3
DA:3008,0
DA:3009,3
DA:3010,3
DA:3011,3
DA:3013,3
DA:3016,0
DA:3017,0
DA:3020,0
DA:3021,0
DA:3022,0
DA:3023,0
DA:3027,0
DA:3028,0
DA:3029,0
DA:3030,0
DA:3034,0
DA:3035,0
DA:3037,0
DA:3040,3
DA:3041,3
DA:3042,2
DA:3043,4
DA:3046,0
DA:3047,2
DA:3051,0
DA:3052,0
DA:3053,4
DA:3054,0
DA:3055,0
DA:3056,0
DA:3059,0
DA:3066,0
DA:3067,0
DA:3068,24
DA:3073,0
DA:3075,0
DA:3077,0
DA:3078,0
DA:3080,0
DA:3081,0
DA:3082,0
DA:3084,0
DA:3085,0
DA:3086,0
DA:3088,0
DA:3089,0
DA:3090,0
DA:3092,0
DA:3093,0
DA:3094,0
DA:3096,0
DA:3097,0
DA:3098,0
DA:3099,0
DA:3100,0
DA:3101,0
DA:3102,0
DA:3103,0
DA:3104,0
DA:3105,0
DA:3106,0
DA:3107,0
DA:3108,0
DA:3109,0
DA:3110,0
DA:3111,0
DA:3112,0
DA:3113,0
DA:3115,0
DA:3116,0
DA:3117,0
DA:3118,0
DA:3119,0
DA:3120,0
DA:3122,0
DA:3123,0
DA:3124,0
DA:3125,0
DA:3126,0
DA:3127,0
DA:3128,0
DA:3129,0
DA:3130,0
DA:3131,0
DA:3132,0
DA:3133,0
DA:3134,0
DA:3135,0
DA:3136,0
DA:3137,0
DA:3138,0
DA:3139,0
DA:3141,0
DA:3142,0
DA:3143,0
DA:3144,0
DA:3145,0
DA:3146,0
DA:3149,0
DA:3153,0
DA:3154,0
DA:3156,0
DA:3158,0
DA:3159,0
DA:3166,0
DA:3167,0
DA:3168,0
DA:3169,0
DA:3170,0
DA:3171,0
DA:3172,0
DA:3173,0
DA:3188,0
DA:3191,0
DA:3196,0
DA:3197,0
DA:3198,0
DA:3199,0
DA:3200,0
DA:3201,0
DA:3213,0
DA:3214,0
DA:3215,0
DA:3216,0
DA:3225,0
DA:3226,0
DA:3227,0
DA:3228,0
DA:3229,0
DA:3230,0
DA:3231,0
DA:3232,0
DA:3233,0
DA:3234,0
DA:3235,0
DA:3237,0
DA:3239,0
DA:3242,0
DA:3246,0
DA:3247,0
DA:3248,0
DA:3249,0
DA:3250,0
DA:3253,0
DA:3254,3
DA:3255,3
DA:3257,0
DA:3258,0
DA:3259,0
DA:3262,0
DA:3264,3
DA:3265,0
DA:3267,0
DA:3268,0
DA:3269,0
DA:3270,0
DA:3271,0
DA:3272,0
DA:3273,0
DA:3274,0
DA:3275,0
DA:3276,0
DA:3277,0
DA:3279,0
DA:3280,0
DA:3282,0
DA:3374,5
DA:3375,5
DA:3376,5
DA:3384,3
DA:3385,3
DA:3386,3
DA:3389,0
DA:3391,0
DA:3402,0
DA:3403,0
DA:3406,0
DA:3407,0
DA:3408,0
DA:3409,0
DA:3410,0
DA:3415,0
DA:3416,0
DA:3417,0
DA:3418,0
DA:3425,0
DA:3426,0
DA:3427,0
DA:3429,0
DA:3430,0
DA:3434,0
DA:3435,0
DA:3438,0
DA:3439,0
DA:3440,0
DA:3443,0
DA:3444,0
DA:3445,0
DA:3447,0
DA:3448,0
DA:3450,0
DA:3451,0
DA:3455,0
DA:3456,0
DA:3458,0
DA:3471,19
DA:3473,38
DA:3475,20
DA:3476,0
DA:3500,6
DA:3501,6
DA:3502,6
DA:3508,0
DA:3509,0
DA:3510,0
DA:3515,3
DA:3525,0
DA:3526,0
DA:3527,0
DA:3530,0
DA:3531,0
DA:3534,0
DA:3535,0
DA:3537,0
DA:3542,0
DA:3543,0
DA:3544,0
DA:3547,0
DA:3548,0
DA:3550,0
DA:3553,0
DA:3554,0
DA:3555,0
DA:3557,0
DA:3559,0
DA:3560,0
DA:3562,0
DA:3564,0
DA:3566,0
DA:3568,0
DA:3570,0
DA:3575,0
DA:3576,0
DA:3583,1
DA:3584,1
DA:3586,1
DA:3587,1
DA:3588,1
DA:3589,1
DA:3590,1
DA:3591,1
DA:3592,1
DA:3595,3
DA:3596,9
DA:3597,3
DA:3598,3
DA:3599,3
DA:3600,3
DA:3601,3
DA:3602,3
DA:3603,3
DA:3604,3
DA:3605,3
DA:3606,3
DA:3608,3
DA:3609,3
DA:3610,3
DA:3611,3
DA:3615,6
DA:3616,0
DA:3617,6
DA:3618,6
DA:3622,6
DA:3623,12
DA:3625,6
DA:3626,6
DA:3627,6
DA:3628,6
DA:3630,6
DA:3631,0
DA:3632,6
DA:3636,3
DA:3637,3
DA:3639,3
DA:3640,0
DA:3642,0
DA:3644,3
DA:3647,7
DA:3648,7
DA:3649,7
DA:3650,0
DA:3651,0
DA:3652,0
DA:3653,0
DA:3659,2
DA:3660,2
DA:3661,2
DA:3667,2
DA:3669,2
DA:3671,2
DA:3675,0
DA:3676,0
DA:3677,0
DA:3679,0
DA:3680,0
DA:3682,0
DA:3686,0
DA:3687,0
DA:3688,0
DA:3690,0
DA:3691,0
DA:3693,0
DA:3697,4
DA:3698,4
DA:3699,4
DA:3726,26
DA:3727,26
DA:3728,26
DA:3730,52
DA:3731,26
DA:3732,0
DA:3734,26
DA:3736,26
DA:3738,3
DA:3739,0
DA:3740,5
DA:3741,1
DA:3742,0
DA:3743,0
DA:3744,0
DA:3745,0
DA:3746,0
DA:3747,17
DA:3748,17
DA:3749,17
DA:3750,17
DA:3753,26
DA:3785,0
DA:3786,0
DA:3787,0
DA:3790,0
DA:3792,0
DA:3793,0
DA:3794,0
DA:3795,0
DA:3796,0
DA:3798,0
DA:3799,0
DA:3800,0
DA:3801,0
DA:3802,0
DA:3803,0
DA:3804,0
DA:3805,0
DA:3806,0
DA:3807,0
DA:3818,3
DA:3819,3
DA:3820,3
DA:3824,2
DA:3825,2
DA:3826,2
DA:3860,0
DA:3863,0
DA:3864,0
DA:3865,0
DA:3866,0
DA:3867,0
DA:3869,0
DA:3875,0
DA:3876,0
DA:3877,0
DA:3878,0
DA:3880,0
DA:3881,0
DA:3882,0
DA:3883,0
DA:3884,0
DA:3885,0
DA:3886,0
DA:3887,0
DA:3888,0
DA:3889,0
DA:3890,0
DA:3892,0
DA:3904,0
DA:3905,0
DA:3906,0
DA:3907,0
DA:3908,0
DA:3909,0
DA:3910,0
DA:3911,0
DA:3913,0
DA:3916,0
DA:3917,0
DA:3919,0
DA:3920,0
DA:3922,0
DA:3923,0
DA:3924,0
DA:3925,0
DA:3926,0
DA:3928,0
DA:3933,0
DA:3936,0
DA:3937,0
DA:3938,0
DA:3939,0
DA:3941,0
DA:3943,0
DA:3944,0
DA:3945,0
DA:3946,0
DA:3951,0
DA:3952,0
DA:3953,0
DA:3954,0
DA:3955,0
DA:3957,0
DA:3958,0
DA:3959,0
DA:3966,0
DA:3967,0
DA:3968,0
DA:3969,0
DA:3970,0
DA:3971,0
DA:3973,0
DA:3974,0
DA:3979,0
DA:4077,0
DA:4078,0
DA:4079,0
DA:4080,0
DA:4081,0
DA:4082,0
DA:4083,0
DA:4086,0
DA:4087,0
DA:4088,0
DA:4089,0
DA:4091,0
DA:4092,0
DA:4093,0
DA:4094,0
DA:4095,0
DA:4096,0
DA:4097,0
DA:4098,0
DA:4100,0
DA:4101,0
DA:4102,0
DA:4103,0
DA:4105,0
DA:4107,0
DA:4108,6
DA:4109,6
DA:4111,21
DA:4112,18
DA:4115,3
DA:4116,3
DA:4118,6
DA:4142,3
DA:4143,3
DA:4147,0
DA:4148,0
DA:4152,0
DA:4153,0
DA:4154,0
DA:4155,0
DA:4156,0
DA:4160,0
DA:4162,0
DA:4164,0
DA:4165,0
DA:4170,3
DA:4171,6
DA:4172,3
DA:4173,3
DA:4174,3
DA:4175,3
DA:4176,3
DA:4177,3
DA:4178,3
DA:4179,3
DA:4180,3
DA:4185,3
DA:4189,0
DA:4190,0
DA:4191,0
DA:4192,0
DA:4194,0
DA:4195,0
DA:4196,0
DA:4197,0
DA:4199,3
DA:4200,3
DA:4201,0
DA:4202,3
DA:4203,0
DA:4204,3
DA:4205,1
DA:4208,3
DA:4209,3
DA:4210,12
DA:4212,3
DA:4213,0
DA:4214,0
DA:4215,0
DA:4218,3
DA:4219,3
DA:4222,3
DA:4223,3
DA:4224,0
DA:4225,3
DA:4227,0
DA:4228,0
DA:4229,0
DA:4231,0
DA:4232,0
DA:4234,0
DA:4235,0
DA:4236,0
DA:4237,0
DA:4238,0
DA:4239,0
DA:4244,0
DA:4245,0
DA:4246,0
DA:4248,0
DA:4251,0
DA:4252,0
DA:4253,0
DA:4256,0
DA:4259,0
DA:4260,0
DA:4261,0
DA:4262,0
DA:4270,2
DA:4281,2
DA:4287,0
DA:4288,0
DA:4291,1
DA:4292,0
DA:4294,0
DA:4295,0
DA:4296,0
DA:4297,0
DA:4298,0
DA:4299,0
DA:4303,0
DA:4305,0
DA:4309,0
DA:4310,0
DA:4313,0
DA:4315,0
DA:4316,0
DA:4317,0
DA:4319,0
DA:4320,0
DA:4321,0
DA:4322,0
DA:4324,0
DA:4325,0
DA:4326,0
DA:4327,0
DA:4328,0
DA:4332,0
DA:4333,0
DA:4335,0
DA:4336,0
DA:4339,0
DA:4340,0
DA:4341,0
DA:4342,0
DA:4343,0
DA:4344,0
DA:4345,0
DA:4346,0
DA:4347,0
DA:4349,0
DA:4350,0
DA:4351,0
DA:4353,0
DA:4355,0
DA:4362,1
DA:4364,1
DA:4365,1
DA:4367,1
DA:4368,1
DA:4369,1
DA:4370,1
DA:4371,2
DA:4372,3
DA:4373,2
DA:4374,3
DA:4375,1
DA:4376,1
DA:4377,1
DA:4378,1
DA:4380,1
DA:4381,1
DA:4382,1
DA:4383,2
DA:4384,3
DA:4385,2
DA:4386,1
DA:4387,1
DA:4388,2
DA:4389,2
DA:4390,1
DA:4392,3
DA:4393,3
DA:4394,3
DA:4395,3
DA:4397,3
DA:4400,3
DA:4401,3
DA:4402,0
DA:4405,3
DA:4406,3
DA:4407,0
DA:4408,0
DA:4410,0
DA:4411,0
DA:4413,0
DA:4414,0
DA:4415,0
DA:4416,0
DA:4417,0
DA:4418,0
DA:4419,0
DA:4422,0
DA:4426,3
DA:4429,3
DA:4430,0
DA:4431,0
DA:4433,3
DA:4434,0
DA:4435,0
DA:4437,3
DA:4438,0
DA:4439,3
DA:4440,0
DA:4441,3
DA:4442,0
DA:4443,3
DA:4444,0
DA:4445,0
DA:4446,3
DA:4447,0
DA:4448,0
DA:4450,3
DA:4451,0
DA:4453,3
DA:4456,0
DA:4457,0
DA:4458,0
DA:4459,0
DA:4461,0
DA:4462,0
DA:4463,0
DA:4464,0
DA:4466,3
DA:4467,3
DA:4470,0
DA:4472,0
DA:4474,0
DA:4475,0
DA:4476,0
DA:4477,0
DA:4478,0
DA:4480,0
DA:4481,0
DA:4482,0
DA:4484,0
DA:4485,0
DA:4486,0
DA:4488,0
DA:4489,0
DA:4490,0
DA:4491,0
DA:4492,0
DA:4494,0
DA:4495,0
DA:4496,0
DA:4497,0
DA:4499,0
DA:4502,0
DA:4505,0
DA:4506,0
DA:4508,0
DA:4510,0
DA:4511,0
DA:4512,0
DA:4513,0
DA:4514,0
DA:4515,0
DA:4516,0
DA:4518,0
DA:4522,2
DA:4525,2
DA:4527,0
DA:4528,0
DA:4529,0
DA:4530,0
DA:4531,0
DA:4533,1
DA:4534,1
DA:4535,1
DA:4536,1
DA:4538,0
DA:4539,0
DA:4541,0
DA:4542,0
DA:4543,0
DA:4544,0
DA:4545,0
DA:4546,0
DA:4547,0
DA:4548,0
DA:4549,0
DA:4550,0
DA:4551,0
DA:4552,0
DA:4553,0
DA:4554,0
DA:4555,0
DA:4556,0
DA:4557,0
DA:4558,0
DA:4559,0
DA:4560,0
DA:4561,0
DA:4562,0
DA:4564,0
DA:4565,0
DA:4566,0
DA:4567,0
DA:4568,0
DA:4569,0
DA:4570,0
DA:4571,0
DA:4572,0
DA:4573,0
DA:4574,0
DA:4575,0
DA:4576,0
DA:4577,0
DA:4578,0
DA:4579,0
DA:4580,0
DA:4581,0
DA:4582,0
DA:4583,0
DA:4584,0
DA:4585,0
DA:4586,0
DA:4587,0
DA:4588,0
DA:4589,0
DA:4590,0
DA:4591,0
DA:4592,0
DA:4593,0
DA:4594,0
DA:4595,0
DA:4596,0
DA:4597,0
DA:4598,0
DA:4599,0
DA:4600,0
DA:4604,0
DA:4605,0
DA:4606,0
DA:4608,0
DA:4609,0
DA:4610,0
DA:4611,0
DA:4612,0
DA:4613,0
DA:4614,0
DA:4616,0
DA:4617,0
DA:4618,0
DA:4619,0
DA:4620,0
DA:4621,0
DA:4622,0
DA:4623,0
DA:4624,0
DA:4625,0
DA:4626,0
DA:4627,0
DA:4628,0
DA:4630,0
DA:4632,0
DA:4633,0
DA:4634,0
DA:4635,0
DA:4637,0
DA:4638,0
DA:4639,0
DA:4640,0
DA:4642,0
DA:4682,90
DA:4683,180
DA:4684,90
DA:4685,90
DA:4688,0
DA:4689,0
DA:4694,0
DA:4702,45
DA:4704,45
DA:4707,45
DA:4711,124
DA:4712,248
DA:4713,124
DA:4714,124
DA:4718,0
DA:4719,0
DA:4724,0
DA:4725,0
DA:4726,0
DA:4727,0
DA:4728,0
DA:4729,0
DA:4738,62
DA:4740,62
DA:4742,62
DA:4745,62
DA:4749,18
DA:4751,18
DA:4752,18
DA:4756,0
DA:4757,0
DA:4758,0
DA:4759,0
DA:4762,0
DA:4777,42
DA:4779,42
DA:4780,42
DA:4783,0
DA:4785,0
DA:4786,0
DA:4789,0
DA:4790,0
DA:4791,0
DA:4792,0
DA:4794,0
DA:4795,0
DA:4796,0
DA:4802,0
DA:4803,0
DA:4804,0
DA:4805,0
DA:4812,1
DA:4813,1
DA:4814,1
DA:4815,1
DA:4817,2
DA:4818,1
DA:4819,0
DA:4820,1
DA:4821,1
DA:4823,0
DA:4826,1
DA:4827,1
DA:4830,1
DA:4831,1
DA:4832,2
DA:4833,2
DA:4834,2
DA:4835,2
DA:4836,2
DA:4837,2
DA:4838,2
DA:4839,2
DA:4840,2
DA:4841,2
DA:4842,2
DA:4843,2
DA:4844,2
DA:4845,2
DA:4846,2
DA:4847,2
DA:4850,1
DA:4851,1
DA:4875,2
DA:4876,1
DA:4878,1
DA:4879,1
DA:4881,1
DA:4882,1
DA:4884,1
DA:4885,1
DA:4886,1
DA:4887,1
DA:4888,1
DA:4889,1
DA:4890,1
DA:4891,1
DA:4892,1
DA:4893,1
DA:4894,1
DA:4895,1
DA:4896,1
DA:4897,1
DA:4898,1
DA:4899,1
DA:4902,1
DA:4903,1
DA:4904,1
DA:4905,1
DA:4906,1
DA:4907,1
DA:4908,1
DA:4910,1
DA:4911,1
DA:4912,0
DA:4913,0
DA:4915,1
DA:4916,0
DA:4917,0
DA:4919,1
DA:4920,0
DA:4921,0
DA:4923,1
DA:4924,0
DA:4925,0
DA:4927,1
DA:4928,0
DA:4929,0
DA:4931,1
DA:4932,0
DA:4933,0
DA:4935,1
DA:4938,0
DA:4941,0
DA:4942,0
DA:4943,0
DA:4944,0
DA:4947,0
DA:4948,0
DA:4949,0
DA:4952,0
DA:4953,0
DA:4954,0
DA:4955,0
DA:4956,0
DA:4959,0
DA:4961,0
DA:4963,0
DA:4966,1
DA:4967,1
DA:4969,1
DA:4970,1
DA:4971,1
DA:4972,1
DA:4973,2
DA:4975,2
DA:4976,1
DA:4979,1
DA:4980,3
DA:4981,1
DA:4984,2
DA:4985,3
DA:4986,0
DA:4996,1
DA:4997,0
DA:4998,0
DA:4999,0
DA:5000,0
DA:5001,0
DA:5002,0
DA:5004,0
DA:5005,0
DA:5007,0
DA:5010,1
DA:5012,1
DA:5013,4
DA:5014,3
DA:5015,1
DA:5018,2
DA:5019,1
DA:5020,1
DA:5021,0
DA:5022,0
DA:5023,0
DA:5024,0
DA:5025,0
DA:5026,0
DA:5029,0
DA:5030,0
DA:5031,0
DA:5033,0
DA:5035,0
DA:5036,0
DA:5041,1
DA:5042,0
DA:5044,2
DA:5045,1
DA:5046,0
DA:5048,1
DA:5050,1
DA:5051,4
DA:5054,6
DA:5055,6
DA:5057,3
DA:5058,3
DA:5059,0
DA:5061,3
DA:5062,0
DA:5063,6
DA:5064,0
DA:5065,6
DA:5066,0
DA:5067,6
DA:5068,0
DA:5069,6
DA:5070,0
DA:5071,6
DA:5074,3
DA:5075,3
DA:5078,3
DA:5079,3
DA:5082,3
DA:5083,0
DA:5084,0
DA:5085,0
DA:5089,3
DA:5093,3
DA:5094,0
DA:5099,3
DA:5100,0
DA:5101,0
DA:5102,0
DA:5103,0
DA:5105,0
DA:5109,3
DA:5110,3
DA:5112,3
DA:5113,3
DA:5114,3
DA:5117,3
DA:5118,3
DA:5120,3
DA:5121,3
DA:5123,3
DA:5124,3
DA:5125,3
DA:5128,3
DA:5131,3
DA:5132,3
DA:5134,12
DA:5136,3
DA:5139,3
DA:5141,6
DA:5143,3
DA:5144,3
DA:5146,0
DA:5147,0
DA:5148,0
DA:5149,0
DA:5150,0
DA:5154,3
DA:5157,3
DA:5158,3
DA:5159,3
DA:5160,6
DA:5161,3
DA:5164,3
DA:5165,0
DA:5166,0
DA:5171,3
DA:5172,0
DA:5174,0
DA:5175,0
DA:5177,3
DA:5179,3
DA:5180,0
DA:5182,3
DA:5183,0
DA:5184,0
DA:5186,3
DA:5187,0
DA:5188,0
DA:5190,0
DA:5192,3
DA:5193,0
DA:5194,3
DA:5195,0
DA:5196,0
DA:5198,0
DA:5202,6
DA:5203,3
DA:5207,3
DA:5208,0
DA:5210,12
DA:5212,3
DA:5215,3
DA:5220,1
DA:5221,4
DA:5223,0
DA:5225,1
DA:5226,1
DA:5228,1
DA:5229,0
DA:5239,0
DA:5240,0
DA:5241,0
DA:5244,0
DA:5245,0
DA:5246,0
DA:5249,1
DA:5250,1
DA:5251,1
DA:5257,0
DA:5264,1
LF:1294
LH:424
end_of_record
